target datalayout = "e-m:e-p270:32:32-p271:32:32-p272:64:64-i64:64-i128:128-f80:128-n8:16:32:64-S128"
target triple = "x86_64-pc-linux-gnu"

%struct._packet_info = type { ptr, ptr, i32, i32, %struct.nstime_t, %struct.nstime_t, %struct.nstime_t, i8, ptr, ptr, ptr, ptr, %struct._address, %struct._address, %struct._address, %struct._address, %struct._address, %struct._address, i32, ptr, i8, [3 x i8], %struct.anon, i32, i32, i32, i32, ptr, i8, ptr, ptr, i16, i16, i32, i32, i16, i32, i32, ptr, ptr, ptr, i8, i8, i16, i16, i16, i32, i16, i16, ptr, ptr, ptr, ptr, ptr, i32, i32 }
%struct.nstime_t = type { i64, i32 }
%struct._address = type { i32, i32, ptr, ptr }
%struct.anon = type { i8, [3 x i8] }
%struct.tm = type { i32, i32, i32, i32, i32, i32, i32, i32, i32, i64, ptr }

@hf_gsm_a_dtap_timezone = internal global i32 0, align 4
@.str.137 = private unnamed_addr constant [27 x i8] c"GMT %c %d hours %d minutes\00", align 1
@.str.150 = private unnamed_addr constant [3 x i8] c"%s\00", align 1
@hf_gsm_a_dtap_time_zone_time = internal global i32 0, align 4

; Function Attrs: null_pointer_is_valid sspstrong uwtable
define internal zeroext i16 @de_time_zone_time(ptr noundef %0, ptr noundef %1, ptr noundef %2, i32 noundef %3, i32 noundef %4, ptr noundef %5, i32 noundef %6) #1 {
  %8 = alloca ptr, align 8
  %9 = alloca ptr, align 8
  %10 = alloca ptr, align 8
  %11 = alloca i32, align 4
  %12 = alloca i32, align 4
  %13 = alloca ptr, align 8
  %14 = alloca i32, align 4
  %15 = alloca i8, align 1
  %16 = alloca i32, align 4
  %17 = alloca i8, align 1
  %18 = alloca %struct.nstime_t, align 8
  %19 = alloca %struct.tm, align 8
  store ptr %0, ptr %8, align 8
  store ptr %1, ptr %9, align 8
  store ptr %2, ptr %10, align 8
  store i32 %3, ptr %11, align 4
  store i32 %4, ptr %12, align 4
  store ptr %5, ptr %13, align 8
  store i32 %6, ptr %14, align 4
  call void @llvm.lifetime.start.p0(i64 1, ptr %15) #7
  call void @llvm.lifetime.start.p0(i64 4, ptr %16) #7
  call void @llvm.lifetime.start.p0(i64 1, ptr %17) #7
  call void @llvm.lifetime.start.p0(i64 16, ptr %18) #7
  call void @llvm.lifetime.start.p0(i64 56, ptr %19) #7
  %20 = load i32, ptr %11, align 4
  store i32 %20, ptr %16, align 4
  %21 = getelementptr inbounds nuw %struct.tm, ptr %19, i32 0, i32 6
  store i32 0, ptr %21, align 8
  %22 = getelementptr inbounds nuw %struct.tm, ptr %19, i32 0, i32 7
  store i32 0, ptr %22, align 4
  %23 = getelementptr inbounds nuw %struct.tm, ptr %19, i32 0, i32 8
  store i32 -1, ptr %23, align 8
  %24 = load ptr, ptr %8, align 8
  %25 = load i32, ptr %16, align 4
  %26 = call zeroext i8 @tvb_get_uint8(ptr noundef %24, i32 noundef %25)
  store i8 %26, ptr %15, align 1
  %27 = load i8, ptr %15, align 1
  %28 = zext i8 %27 to i32
  %29 = and i32 %28, 15
  %30 = mul i32 %29, 10
  %31 = load i8, ptr %15, align 1
  %32 = zext i8 %31 to i32
  %33 = and i32 %32, 240
  %34 = ashr i32 %33, 4
  %35 = add i32 %30, %34
  %36 = add i32 %35, 100
  %37 = getelementptr inbounds nuw %struct.tm, ptr %19, i32 0, i32 5
  store i32 %36, ptr %37, align 4
  %38 = load ptr, ptr %8, align 8
  %39 = load i32, ptr %16, align 4
  %40 = add i32 %39, 1
  %41 = call zeroext i8 @tvb_get_uint8(ptr noundef %38, i32 noundef %40)
  store i8 %41, ptr %15, align 1
  %42 = load i8, ptr %15, align 1
  %43 = zext i8 %42 to i32
  %44 = and i32 %43, 15
  %45 = mul i32 %44, 10
  %46 = load i8, ptr %15, align 1
  %47 = zext i8 %46 to i32
  %48 = and i32 %47, 240
  %49 = ashr i32 %48, 4
  %50 = add i32 %45, %49
  %51 = sub i32 %50, 1
  %52 = getelementptr inbounds nuw %struct.tm, ptr %19, i32 0, i32 4
  store i32 %51, ptr %52, align 8
  %53 = load ptr, ptr %8, align 8
  %54 = load i32, ptr %16, align 4
  %55 = add i32 %54, 2
  %56 = call zeroext i8 @tvb_get_uint8(ptr noundef %53, i32 noundef %55)
  store i8 %56, ptr %15, align 1
  %57 = load i8, ptr %15, align 1
  %58 = zext i8 %57 to i32
  %59 = and i32 %58, 15
  %60 = mul i32 %59, 10
  %61 = load i8, ptr %15, align 1
  %62 = zext i8 %61 to i32
  %63 = and i32 %62, 240
  %64 = ashr i32 %63, 4
  %65 = add i32 %60, %64
  %66 = getelementptr inbounds nuw %struct.tm, ptr %19, i32 0, i32 3
  store i32 %65, ptr %66, align 4
  %67 = load ptr, ptr %8, align 8
  %68 = load i32, ptr %16, align 4
  %69 = add i32 %68, 3
  %70 = call zeroext i8 @tvb_get_uint8(ptr noundef %67, i32 noundef %69)
  store i8 %70, ptr %15, align 1
  %71 = load i8, ptr %15, align 1
  %72 = zext i8 %71 to i32
  %73 = and i32 %72, 15
  %74 = mul i32 %73, 10
  %75 = load i8, ptr %15, align 1
  %76 = zext i8 %75 to i32
  %77 = and i32 %76, 240
  %78 = ashr i32 %77, 4
  %79 = add i32 %74, %78
  %80 = getelementptr inbounds nuw %struct.tm, ptr %19, i32 0, i32 2
  store i32 %79, ptr %80, align 8
  %81 = load ptr, ptr %8, align 8
  %82 = load i32, ptr %16, align 4
  %83 = add i32 %82, 4
  %84 = call zeroext i8 @tvb_get_uint8(ptr noundef %81, i32 noundef %83)
  store i8 %84, ptr %15, align 1
  %85 = load i8, ptr %15, align 1
  %86 = zext i8 %85 to i32
  %87 = and i32 %86, 15
  %88 = mul i32 %87, 10
  %89 = load i8, ptr %15, align 1
  %90 = zext i8 %89 to i32
  %91 = and i32 %90, 240
  %92 = ashr i32 %91, 4
  %93 = add i32 %88, %92
  %94 = getelementptr inbounds nuw %struct.tm, ptr %19, i32 0, i32 1
  store i32 %93, ptr %94, align 4
  %95 = load ptr, ptr %8, align 8
  %96 = load i32, ptr %16, align 4
  %97 = add i32 %96, 5
  %98 = call zeroext i8 @tvb_get_uint8(ptr noundef %95, i32 noundef %97)
  store i8 %98, ptr %15, align 1
  %99 = load i8, ptr %15, align 1
  %100 = zext i8 %99 to i32
  %101 = and i32 %100, 15
  %102 = mul i32 %101, 10
  %103 = load i8, ptr %15, align 1
  %104 = zext i8 %103 to i32
  %105 = and i32 %104, 240
  %106 = ashr i32 %105, 4
  %107 = add i32 %102, %106
  %108 = getelementptr inbounds nuw %struct.tm, ptr %19, i32 0, i32 0
  store i32 %107, ptr %108, align 8
  %109 = call i64 @mktime(ptr noundef %19) #7
  %110 = getelementptr inbounds nuw %struct.nstime_t, ptr %18, i32 0, i32 0
  store i64 %109, ptr %110, align 8
  %111 = getelementptr inbounds nuw %struct.nstime_t, ptr %18, i32 0, i32 1
  store i32 0, ptr %111, align 8
  %112 = load ptr, ptr %9, align 8
  %113 = load i32, ptr @hf_gsm_a_dtap_time_zone_time, align 4
  %114 = load ptr, ptr %8, align 8
  %115 = load i32, ptr %16, align 4
  %116 = load ptr, ptr %10, align 8
  %117 = getelementptr inbounds nuw %struct._packet_info, ptr %116, i32 0, i32 51
  %118 = load ptr, ptr %117, align 8
  %119 = call ptr @abs_time_to_str_ex(ptr noundef %118, ptr noundef %18, i32 noundef 18, i32 noundef 0)
  %120 = call ptr (ptr, i32, ptr, i32, i32, ptr, ptr, ...) @proto_tree_add_time_format_value(ptr noundef %112, i32 noundef %113, ptr noundef %114, i32 noundef %115, i32 noundef 6, ptr noundef %18, ptr noundef @.str.150, ptr noundef %119)
  %121 = load i32, ptr %16, align 4
  %122 = add i32 %121, 6
  store i32 %122, ptr %16, align 4
  %123 = load ptr, ptr %8, align 8
  %124 = load i32, ptr %16, align 4
  %125 = call zeroext i8 @tvb_get_uint8(ptr noundef %123, i32 noundef %124)
  store i8 %125, ptr %15, align 1
  %126 = load i8, ptr %15, align 1
  %127 = zext i8 %126 to i32
  %128 = and i32 %127, 8
  %129 = icmp ne i32 %128, 0
  %130 = select i1 %129, i32 45, i32 43
  %131 = trunc i32 %130 to i8
  store i8 %131, ptr %17, align 1
  %132 = load i8, ptr %15, align 1
  %133 = zext i8 %132 to i32
  %134 = ashr i32 %133, 4
  %135 = load i8, ptr %15, align 1
  %136 = zext i8 %135 to i32
  %137 = and i32 %136, 7
  %138 = mul i32 %137, 10
  %139 = add i32 %134, %138
  %140 = trunc i32 %139 to i8
  store i8 %140, ptr %15, align 1
  %141 = load ptr, ptr %9, align 8
  %142 = load i32, ptr @hf_gsm_a_dtap_timezone, align 4
  %143 = load ptr, ptr %8, align 8
  %144 = load i32, ptr %16, align 4
  %145 = load i8, ptr %15, align 1
  %146 = zext i8 %145 to i32
  %147 = load i8, ptr %17, align 1
  %148 = sext i8 %147 to i32
  %149 = load i8, ptr %15, align 1
  %150 = zext i8 %149 to i32
  %151 = sdiv i32 %150, 4
  %152 = load i8, ptr %15, align 1
  %153 = zext i8 %152 to i32
  %154 = srem i32 %153, 4
  %155 = mul i32 %154, 15
  %156 = call ptr (ptr, i32, ptr, i32, i32, i32, ptr, ...) @proto_tree_add_uint_format_value(ptr noundef %141, i32 noundef %142, ptr noundef %143, i32 noundef %144, i32 noundef 1, i32 noundef %146, ptr noundef @.str.137, i32 noundef %148, i32 noundef %151, i32 noundef %155)
  %157 = load i32, ptr %16, align 4
  %158 = add i32 %157, 1
  store i32 %158, ptr %16, align 4
  %159 = load i32, ptr %16, align 4
  %160 = load i32, ptr %11, align 4
  %161 = sub i32 %159, %160
  %162 = trunc i32 %161 to i16
  call void @llvm.lifetime.end.p0(i64 56, ptr %19) #7
  call void @llvm.lifetime.end.p0(i64 16, ptr %18) #7
  call void @llvm.lifetime.end.p0(i64 1, ptr %17) #7
  call void @llvm.lifetime.end.p0(i64 4, ptr %16) #7
  call void @llvm.lifetime.end.p0(i64 1, ptr %15) #7
  ret i16 %162
}